target datalayout = "e-m:e-p270:32:32-p271:32:32-p272:64:64-i64:64-i128:128-f80:128-n8:16:32:64-S128"
target triple = "x86_64-pc-linux-gnu"

%struct.Msat_Solver_t_ = type { i32, i32, ptr, ptr, double, double, ptr, ptr, double, double, ptr, ptr, ptr, i32, i32, ptr, ptr, ptr, ptr, ptr, ptr, i32, double, i32, double, ptr, ptr, ptr, ptr, i32, ptr, ptr, ptr, ptr, %struct.Msat_SolverStats_t_, i32, i32, i32, i32, i32, i32 }
%struct.Msat_SolverStats_t_ = type { i64, i64, i64, i64, i64, i64 }

@.str = private unnamed_addr constant [18 x i8] c"%-*dassume(%s%d)\0A\00", align 1
@.str.1 = private unnamed_addr constant [2 x i8] c"-\00", align 1
@.str.2 = private unnamed_addr constant [1 x i8] zeroinitializer, align 1

; Function Attrs: nounwind uwtable
define i32 @Msat_SolverAssume(ptr noundef %0, i32 noundef %1) #0 {
  %3 = alloca ptr, align 8
  %4 = alloca i32, align 4
  store ptr %0, ptr %3, align 8, !tbaa !3
  store i32 %1, ptr %4, align 4, !tbaa !8
  %5 = load ptr, ptr %3, align 8, !tbaa !3
  %6 = getelementptr inbounds nuw %struct.Msat_Solver_t_, ptr %5, i32 0, i32 23
  %7 = load i32, ptr %6, align 8, !tbaa !10
  %8 = icmp ne i32 %7, 0
  br i1 %8, label %9, label %24

9:                                                ; preds = %2
  %10 = load ptr, ptr %3, align 8, !tbaa !3
  %11 = call i32 @Msat_SolverReadDecisionLevel(ptr noundef %10)
  %12 = mul nsw i32 %11, 3
  %13 = add nsw i32 %12, 3
  %14 = load ptr, ptr %3, align 8, !tbaa !3
  %15 = call i32 @Msat_SolverReadDecisionLevel(ptr noundef %14)
  %16 = load i32, ptr %4, align 4, !tbaa !8
  %17 = and i32 %16, 1
  %18 = icmp ne i32 %17, 0
  %19 = select i1 %18, ptr @.str.1, ptr @.str.2
  %20 = load i32, ptr %4, align 4, !tbaa !8
  %21 = ashr i32 %20, 1
  %22 = add nsw i32 %21, 1
  %23 = call i32 (ptr, ...) @printf(ptr noundef @.str, i32 noundef %13, i32 noundef %15, ptr noundef %19, i32 noundef %22)
  br label %24

24:                                               ; preds = %9, %2
  %25 = load ptr, ptr %3, align 8, !tbaa !3
  %26 = getelementptr inbounds nuw %struct.Msat_Solver_t_, ptr %25, i32 0, i32 18
  %27 = load ptr, ptr %26, align 8, !tbaa !25
  %28 = load ptr, ptr %3, align 8, !tbaa !3
  %29 = getelementptr inbounds nuw %struct.Msat_Solver_t_, ptr %28, i32 0, i32 17
  %30 = load ptr, ptr %29, align 8, !tbaa !26
  %31 = call i32 @Msat_IntVecReadSize(ptr noundef %30)
  call void @Msat_IntVecPush(ptr noundef %27, i32 noundef %31)
  %32 = load ptr, ptr %3, align 8, !tbaa !3
  %33 = load i32, ptr %4, align 4, !tbaa !8
  %34 = call i32 @Msat_SolverEnqueue(ptr noundef %32, i32 noundef %33, ptr noundef null)
  ret i32 %34
}