; Function Attrs: nounwind uwtable
define range(i32 0, 2) i32 @Msat_SolverAssume(ptr noundef %0, i32 noundef %1) local_unnamed_addr #0 {
  %3 = getelementptr inbounds nuw i8, ptr %0, i64 168
  %4 = load i32, ptr %3, align 8, !tbaa !3
  %.not = icmp eq i32 %4, 0
  br i1 %.not, label %15, label %5

5:                                                ; preds = %2
  %6 = tail call i32 @Msat_SolverReadDecisionLevel(ptr noundef nonnull %0) #7
  %7 = mul nsw i32 %6, 3
  %8 = add nsw i32 %7, 3
  %9 = tail call i32 @Msat_SolverReadDecisionLevel(ptr noundef nonnull %0) #7
  %10 = and i32 %1, 1
  %.not8 = icmp eq i32 %10, 0
  %11 = select i1 %.not8, ptr @.str.2, ptr @.str.1
  %12 = ashr i32 %1, 1
  %13 = add nsw i32 %12, 1
  %14 = tail call i32 (ptr, ...) @printf(ptr noundef nonnull dereferenceable(1) @.str, i32 noundef %8, i32 noundef %9, ptr noundef nonnull %11, i32 noundef %13)
  br label %15

15:                                               ; preds = %5, %2
  %16 = getelementptr inbounds nuw i8, ptr %0, i64 128
  %17 = load ptr, ptr %16, align 8, !tbaa !22
  %18 = getelementptr inbounds nuw i8, ptr %0, i64 120
  %19 = load ptr, ptr %18, align 8, !tbaa !23
  %20 = tail call i32 @Msat_IntVecReadSize(ptr noundef %19) #7
  tail call void @Msat_IntVecPush(ptr noundef %17, i32 noundef %20) #7
  %21 = tail call i32 @Msat_SolverEnqueue(ptr noundef nonnull %0, i32 noundef %1, ptr noundef null)
  ret i32 %21
}